; Function Attrs: mustprogress uwtable
define hidden void @_ZN4cvc58internal6theory11quantifiers7fmcheck18FirstOrderModelFmcC2ERNS0_3EnvERNS2_16QuantifiersStateERNS2_19QuantifiersRegistryERNS2_12TermRegistryE(ptr noundef nonnull align 8 dereferenceable(752) %this, ptr noundef nonnull align 8 dereferenceable(576) %env, ptr noundef nonnull align 1 %qs, ptr noundef nonnull align 1 %qr, ptr noundef nonnull align 1 %tr) unnamed_addr #3 align 2 personality ptr @__gxx_personality_v0 {
entry:
  tail call void @_ZN4cvc58internal6theory11quantifiers15FirstOrderModelC2ERNS0_3EnvERNS2_16QuantifiersStateERNS2_19QuantifiersRegistryERNS2_12TermRegistryE(ptr noundef nonnull align 8 dereferenceable(656) %this, ptr noundef nonnull align 8 dereferenceable(576) %env, ptr noundef nonnull align 1 %qs, ptr noundef nonnull align 1 %qr, ptr noundef nonnull align 1 %tr)
  store ptr getelementptr inbounds ({ [7 x ptr] }, ptr @_ZTVN4cvc58internal6theory11quantifiers7fmcheck18FirstOrderModelFmcE, i64 0, i32 0, i64 2), ptr %this, align 8
  %0 = getelementptr inbounds i8, ptr %this, i64 664
  store i32 0, ptr %0, align 8
  %_M_parent.i.i.i.i.i = getelementptr inbounds i8, ptr %this, i64 672
  store ptr null, ptr %_M_parent.i.i.i.i.i, align 8
  %_M_left.i.i.i.i.i = getelementptr inbounds i8, ptr %this, i64 680
  store ptr %0, ptr %_M_left.i.i.i.i.i, align 8
  %_M_right.i.i.i.i.i = getelementptr inbounds i8, ptr %this, i64 688
  store ptr %0, ptr %_M_right.i.i.i.i.i, align 8
  %_M_node_count.i.i.i.i.i = getelementptr inbounds i8, ptr %this, i64 696
  store i64 0, ptr %_M_node_count.i.i.i.i.i, align 8
  %1 = getelementptr inbounds i8, ptr %this, i64 712
  store i32 0, ptr %1, align 8
  %_M_parent.i.i.i.i.i1 = getelementptr inbounds i8, ptr %this, i64 720
  store ptr null, ptr %_M_parent.i.i.i.i.i1, align 8
  %_M_left.i.i.i.i.i2 = getelementptr inbounds i8, ptr %this, i64 728
  store ptr %1, ptr %_M_left.i.i.i.i.i2, align 8
  %_M_right.i.i.i.i.i3 = getelementptr inbounds i8, ptr %this, i64 736
  store ptr %1, ptr %_M_right.i.i.i.i.i3, align 8
  %_M_node_count.i.i.i.i.i4 = getelementptr inbounds i8, ptr %this, i64 744
  store i64 0, ptr %_M_node_count.i.i.i.i.i4, align 8
  ret void
}